; Function Attrs: mustprogress uwtable
define dso_local void @_ZN4Luau7CodeGen3A6418AssemblyBuilderA647placeBREPKcNS1_11RegisterA64Ej(ptr noundef nonnull align 8 dereferenceable(176) %0, ptr noundef %1, i8 %2, i32 noundef %3) local_unnamed_addr #0 align 2 {
  %5 = getelementptr inbounds nuw i8, ptr %0, i64 80
  %6 = load i8, ptr %5, align 8, !tbaa !14, !range !46, !noundef !47
  %7 = trunc nuw i8 %6 to i1
  br i1 %7, label %8, label %9

8:                                                ; preds = %4
  tail call void @_ZN4Luau7CodeGen3A6418AssemblyBuilderA643logEPKcNS1_11RegisterA64E(ptr noundef nonnull align 8 dereferenceable(176) %0, ptr noundef %1, i8 %2)
  br label %9

9:                                                ; preds = %8, %4
  %10 = lshr i8 %2, 3
  %11 = zext nneg i8 %10 to i32
  %12 = shl nuw nsw i32 %11, 5
  %13 = shl i32 %3, 10
  %14 = or disjoint i32 %12, %13
  %15 = getelementptr inbounds nuw i8, ptr %0, i64 160
  %16 = load ptr, ptr %15, align 8, !tbaa !39
  %17 = getelementptr inbounds nuw i8, ptr %16, i64 4
  store ptr %17, ptr %15, align 8, !tbaa !39
  store i32 %14, ptr %16, align 4, !tbaa !48
  %18 = getelementptr inbounds nuw i8, ptr %0, i64 168
  %19 = load ptr, ptr %18, align 8, !tbaa !40
  %20 = icmp eq ptr %19, %17
  br i1 %20, label %21, label %_ZN4Luau7CodeGen3A6418AssemblyBuilderA646commitEv.exit

21:                                               ; preds = %9
  tail call void @_ZN4Luau7CodeGen3A6418AssemblyBuilderA646extendEv(ptr noundef nonnull align 8 dereferenceable(176) %0)
  br label %_ZN4Luau7CodeGen3A6418AssemblyBuilderA646commitEv.exit

_ZN4Luau7CodeGen3A6418AssemblyBuilderA646commitEv.exit: ; preds = %9, %21
  ret void
}